; Function Attrs: nounwind uwtable
define internal noundef ptr @H5O__mtime_copy(ptr noundef readonly captures(none) %0, ptr noundef writeonly captures(address_is_null, ret: address, provenance) %1) #0 {
  %3 = load i8, ptr @H5O_init_g, align 1, !tbaa !3, !range !7, !noundef !8
  %4 = trunc nuw i8 %3 to i1
  %5 = load i8, ptr @H5_libterm_g, align 1, !range !7
  %6 = trunc nuw i8 %5 to i1
  %7 = xor i1 %6, true
  %8 = select i1 %4, i1 true, i1 %7
  br i1 %8, label %9, label %19, !prof !9

9:                                                ; preds = %2
  %.not = icmp eq ptr %1, null
  br i1 %.not, label %10, label %17

10:                                               ; preds = %9
  %11 = tail call noalias ptr @H5FL_reg_malloc(ptr noundef nonnull @H5_time_t_reg_free_list) #9
  %12 = icmp eq ptr %11, null
  br i1 %12, label %13, label %17

13:                                               ; preds = %10
  %14 = load i64, ptr @H5E_RESOURCE_g, align 8, !tbaa !13
  %15 = load i64, ptr @H5E_NOSPACE_g, align 8, !tbaa !13
  %16 = tail call i32 (ptr, ptr, i32, i64, i64, ptr, ...) @H5E_printf_stack(ptr noundef nonnull @.str.3, ptr noundef nonnull @__func__.H5O__mtime_copy, i32 noundef 305, i64 noundef %14, i64 noundef %15, ptr noundef nonnull @.str.6) #9
  br label %19

17:                                               ; preds = %10, %9
  %.07 = phi ptr [ %1, %9 ], [ %11, %10 ]
  %18 = load i64, ptr %0, align 8, !tbaa !13
  store i64 %18, ptr %.07, align 8, !tbaa !13
  br label %19

19:                                               ; preds = %13, %17, %2
  %.0 = phi ptr [ %.07, %17 ], [ null, %13 ], [ null, %2 ]
  ret ptr %.0
}